target datalayout = "e-m:e-p270:32:32-p271:32:32-p272:64:64-i64:64-i128:128-f80:128-n8:16:32:64-S128"
target triple = "x86_64-pc-linux-gnu"

%struct.HTable = type { i32, ptr }
%struct.Module_ = type { ptr, ptr, ptr, i16, i32, ptr, %struct.HTable, ptr, ptr, ptr, ptr, ptr, ptr, ptr, ptr, ptr }
%struct.Path_ = type { %union.SourceSpan, ptr, i32 }
%union.SourceSpan = type { i64 }
%struct.VHeader_ = type { i32, i32, [0 x i8] }
%struct.Decl_ = type { ptr, ptr, %union.SourceSpan, i64, %union.anon.3, i32, %union.anon.4, i64, ptr, ptr, ptr, %union.anon.5 }
%union.anon.3 = type { ptr }
%union.anon.4 = type { i16 }
%union.anon.5 = type { %struct.FuncDecl }
%struct.FuncDecl = type { i32, [4 x i8], %struct.Signature_, i32, i32, %union.anon.12 }
%struct.Signature_ = type <{ %struct.CalleeAttributes, i16, i8, i32, i32, [4 x i8], ptr }>
%struct.CalleeAttributes = type { i8 }
%union.anon.12 = type { %struct.anon.13 }
%struct.anon.13 = type { i16, %union.anon.14 }
%union.anon.14 = type { ptr }
%struct.anon.6 = type { ptr, ptr, %union.anon.7 }
%union.anon.7 = type { %struct.BitStructDecl }
%struct.BitStructDecl = type { ptr, ptr, i8 }
%struct.StructDecl = type { i32, ptr, i32, i16 }

@.str = private unnamed_addr constant [36 x i8] c"FATAL ERROR %s -> in %s @ in %s:%d \00", align 1
@.str.1 = private unnamed_addr constant [22 x i8] c"Should be unreachable\00", align 1
@.str.2 = private unnamed_addr constant [112 x i8] c"generated/home/dtcxzyw/WorkSpace/Projects/compilers/llvm-opt-benchmark/bench/c3c/c3c/src/compiler/json_output.c\00", align 1
@.str.22 = private unnamed_addr constant [3 x i8] c",\0A\00", align 1
@.str.29 = private unnamed_addr constant [15 x i8] c"\09\09\22%s::%s\22: {\0A\00", align 1
@.str.30 = private unnamed_addr constant [16 x i8] c"\09\09\09\22kind\22: \22%s\22\00", align 1
@.str.31 = private unnamed_addr constant [19 x i8] c",\0A\09\09\09\22members\22: {\0A\00", align 1
@.str.32 = private unnamed_addr constant [9 x i8] c"\09\09\09\09\22%s\22\00", align 1
@.str.33 = private unnamed_addr constant [6 x i8] c"\0A\09\09\09}\00", align 1
@.str.34 = private unnamed_addr constant [5 x i8] c"\0A\09\09}\00", align 1
@.str.35 = private unnamed_addr constant [10 x i8] c"attribute\00", align 1
@.str.36 = private unnamed_addr constant [10 x i8] c"bitstruct\00", align 1
@.str.37 = private unnamed_addr constant [8 x i8] c"$assert\00", align 1
@.str.38 = private unnamed_addr constant [6 x i8] c"$echo\00", align 1
@.str.39 = private unnamed_addr constant [6 x i8] c"$exec\00", align 1
@.str.40 = private unnamed_addr constant [9 x i8] c"$include\00", align 1
@.str.41 = private unnamed_addr constant [4 x i8] c"def\00", align 1
@.str.42 = private unnamed_addr constant [9 x i8] c"distinct\00", align 1
@.str.43 = private unnamed_addr constant [5 x i8] c"enum\00", align 1
@.str.44 = private unnamed_addr constant [11 x i8] c"enum_const\00", align 1
@.str.45 = private unnamed_addr constant [6 x i8] c"fault\00", align 1
@.str.46 = private unnamed_addr constant [10 x i8] c"fault_val\00", align 1
@.str.47 = private unnamed_addr constant [7 x i8] c"fntype\00", align 1
@.str.48 = private unnamed_addr constant [9 x i8] c"function\00", align 1
@.str.49 = private unnamed_addr constant [7 x i8] c"global\00", align 1
@.str.50 = private unnamed_addr constant [7 x i8] c"import\00", align 1
@.str.51 = private unnamed_addr constant [6 x i8] c"macro\00", align 1
@.str.52 = private unnamed_addr constant [10 x i8] c"interface\00", align 1
@.str.53 = private unnamed_addr constant [7 x i8] c"struct\00", align 1
@.str.54 = private unnamed_addr constant [6 x i8] c"union\00", align 1
@.str.55 = private unnamed_addr constant [8 x i8] c"typedef\00", align 1
@__func__.decl_type_to_string = private unnamed_addr constant [20 x i8] c"decl_type_to_string\00", align 1

; Function Attrs: nounwind uwtable
define internal ptr @decl_type_to_string(ptr noundef %0) #0 {
  %2 = alloca ptr, align 8
  %3 = alloca ptr, align 8
  store ptr %0, ptr %3, align 8
  %4 = load ptr, ptr %3, align 8
  %5 = getelementptr inbounds %struct.Decl_, ptr %4, i32 0, i32 3
  %6 = load i64, ptr %5, align 8
  %7 = and i64 %6, 127
  %8 = trunc i64 %7 to i32
  switch i32 %8, label %33 [
    i32 1, label %9
    i32 2, label %10
    i32 4, label %11
    i32 5, label %12
    i32 6, label %13
    i32 7, label %14
    i32 9, label %15
    i32 10, label %16
    i32 11, label %17
    i32 12, label %18
    i32 14, label %19
    i32 15, label %20
    i32 16, label %21
    i32 17, label %22
    i32 18, label %23
    i32 19, label %24
    i32 21, label %25
    i32 22, label %26
    i32 23, label %27
    i32 25, label %28
    i32 24, label %29
    i32 3, label %30
    i32 8, label %30
    i32 13, label %30
    i32 20, label %30
    i32 0, label %30
    i32 26, label %30
  ]

9:                                                ; preds = %1
  store ptr @.str.35, ptr %2, align 8
  br label %35

10:                                               ; preds = %1
  store ptr @.str.36, ptr %2, align 8
  br label %35

11:                                               ; preds = %1
  store ptr @.str.37, ptr %2, align 8
  br label %35

12:                                               ; preds = %1
  store ptr @.str.38, ptr %2, align 8
  br label %35

13:                                               ; preds = %1
  store ptr @.str.39, ptr %2, align 8
  br label %35

14:                                               ; preds = %1
  store ptr @.str.40, ptr %2, align 8
  br label %35

15:                                               ; preds = %1
  store ptr @.str.41, ptr %2, align 8
  br label %35

16:                                               ; preds = %1
  store ptr @.str.42, ptr %2, align 8
  br label %35

17:                                               ; preds = %1
  store ptr @.str.43, ptr %2, align 8
  br label %35

18:                                               ; preds = %1
  store ptr @.str.44, ptr %2, align 8
  br label %35

19:                                               ; preds = %1
  store ptr @.str.45, ptr %2, align 8
  br label %35

20:                                               ; preds = %1
  store ptr @.str.46, ptr %2, align 8
  br label %35

21:                                               ; preds = %1
  store ptr @.str.47, ptr %2, align 8
  br label %35

22:                                               ; preds = %1
  store ptr @.str.48, ptr %2, align 8
  br label %35

23:                                               ; preds = %1
  store ptr @.str.49, ptr %2, align 8
  br label %35

24:                                               ; preds = %1
  store ptr @.str.50, ptr %2, align 8
  br label %35

25:                                               ; preds = %1
  store ptr @.str.51, ptr %2, align 8
  br label %35

26:                                               ; preds = %1
  store ptr @.str.52, ptr %2, align 8
  br label %35

27:                                               ; preds = %1
  store ptr @.str.53, ptr %2, align 8
  br label %35

28:                                               ; preds = %1
  store ptr @.str.54, ptr %2, align 8
  br label %35

29:                                               ; preds = %1
  store ptr @.str.55, ptr %2, align 8
  br label %35

30:                                               ; preds = %1, %1, %1, %1, %1, %1
  br label %31

31:                                               ; preds = %30
  call void (ptr, ...) @error_exit(ptr noundef @.str, ptr noundef @.str.1, ptr noundef @__func__.decl_type_to_string, ptr noundef @.str.2, i32 noundef 65) #4
  unreachable

32:                                               ; No predecessors!
  br label %33

33:                                               ; preds = %32, %1
  br label %34

34:                                               ; preds = %33
  call void (ptr, ...) @error_exit(ptr noundef @.str, ptr noundef @.str.1, ptr noundef @__func__.decl_type_to_string, ptr noundef @.str.2, i32 noundef 67) #4
  unreachable

35:                                               ; preds = %29, %28, %27, %26, %25, %24, %23, %22, %21, %20, %19, %18, %17, %16, %15, %14, %13, %12, %11, %10, %9
  %36 = load ptr, ptr %2, align 8
  ret ptr %36
}

; Function Attrs: nounwind uwtable
define internal void @emit_type_data(ptr noundef %0, ptr noundef %1, ptr noundef %2) #0 {
  %4 = alloca i32, align 4
  %5 = alloca ptr, align 8
  %6 = alloca ptr, align 8
  %7 = alloca ptr, align 8
  %8 = alloca ptr, align 8
  %9 = alloca ptr, align 8
  %10 = alloca ptr, align 8
  %11 = alloca i32, align 4
  %12 = alloca i32, align 4
  %13 = alloca ptr, align 8
  store ptr %0, ptr %7, align 8
  store ptr %1, ptr %8, align 8
  store ptr %2, ptr %9, align 8
  %14 = load ptr, ptr %7, align 8
  %15 = load ptr, ptr %8, align 8
  %16 = getelementptr inbounds %struct.Module_, ptr %15, i32 0, i32 0
  %17 = load ptr, ptr %16, align 8
  %18 = getelementptr inbounds %struct.Path_, ptr %17, i32 0, i32 1
  %19 = load ptr, ptr %18, align 8
  %20 = load ptr, ptr %9, align 8
  %21 = getelementptr inbounds %struct.Decl_, ptr %20, i32 0, i32 0
  %22 = load ptr, ptr %21, align 8
  %23 = call i32 (ptr, ptr, ...) @fprintf(ptr noundef %14, ptr noundef @.str.29, ptr noundef %19, ptr noundef %22) #5
  %24 = load ptr, ptr %7, align 8
  %25 = load ptr, ptr %9, align 8
  %26 = call ptr @decl_type_to_string(ptr noundef %25)
  %27 = call i32 (ptr, ptr, ...) @fprintf(ptr noundef %24, ptr noundef @.str.30, ptr noundef %26) #5
  %28 = load ptr, ptr %9, align 8
  %29 = getelementptr inbounds %struct.Decl_, ptr %28, i32 0, i32 3
  %30 = load i64, ptr %29, align 8
  %31 = and i64 %30, 127
  %32 = trunc i64 %31 to i32
  %33 = icmp eq i32 %32, 23
  br i1 %33, label %41, label %34

34:                                               ; preds = %3
  %35 = load ptr, ptr %9, align 8
  %36 = getelementptr inbounds %struct.Decl_, ptr %35, i32 0, i32 3
  %37 = load i64, ptr %36, align 8
  %38 = and i64 %37, 127
  %39 = trunc i64 %38 to i32
  %40 = icmp eq i32 %39, 25
  br i1 %40, label %41, label %89

41:                                               ; preds = %34, %3
  %42 = load ptr, ptr %7, align 8
  %43 = call i32 @fputs(ptr noundef @.str.31, ptr noundef %42)
  %44 = load ptr, ptr %9, align 8
  %45 = getelementptr inbounds %struct.Decl_, ptr %44, i32 0, i32 11
  %46 = getelementptr inbounds %struct.anon.6, ptr %45, i32 0, i32 2
  %47 = getelementptr inbounds %struct.StructDecl, ptr %46, i32 0, i32 1
  %48 = load ptr, ptr %47, align 8
  store ptr %48, ptr %10, align 8
  %49 = load ptr, ptr %10, align 8
  store ptr %49, ptr %5, align 8
  %50 = load ptr, ptr %5, align 8
  %51 = icmp ne ptr %50, null
  br i1 %51, label %53, label %52

52:                                               ; preds = %41
  store i32 0, ptr %4, align 4
  br label %58

53:                                               ; preds = %41
  %54 = load ptr, ptr %5, align 8
  store ptr %54, ptr %6, align 8
  %55 = load ptr, ptr %6, align 8
  %56 = getelementptr inbounds %struct.VHeader_, ptr %55, i64 -1
  %57 = load i32, ptr %56, align 4
  store i32 %57, ptr %4, align 4
  br label %58

58:                                               ; preds = %53, %52
  %59 = load i32, ptr %4, align 4
  store i32 %59, ptr %11, align 4
  store i32 0, ptr %12, align 4
  br label %60

60:                                               ; preds = %81, %58
  %61 = load i32, ptr %12, align 4
  %62 = load i32, ptr %11, align 4
  %63 = icmp ult i32 %61, %62
  br i1 %63, label %64, label %84

64:                                               ; preds = %60
  %65 = load ptr, ptr %10, align 8
  %66 = load i32, ptr %12, align 4
  %67 = zext i32 %66 to i64
  %68 = getelementptr inbounds ptr, ptr %65, i64 %67
  %69 = load ptr, ptr %68, align 8
  store ptr %69, ptr %13, align 8
  %70 = load i32, ptr %12, align 4
  %71 = icmp ne i32 %70, 0
  br i1 %71, label %72, label %75

72:                                               ; preds = %64
  %73 = load ptr, ptr %7, align 8
  %74 = call i32 @fputs(ptr noundef @.str.22, ptr noundef %73)
  br label %75

75:                                               ; preds = %72, %64
  %76 = load ptr, ptr %7, align 8
  %77 = load ptr, ptr %13, align 8
  %78 = getelementptr inbounds %struct.Decl_, ptr %77, i32 0, i32 0
  %79 = load ptr, ptr %78, align 8
  %80 = call i32 (ptr, ptr, ...) @fprintf(ptr noundef %76, ptr noundef @.str.32, ptr noundef %79) #5
  br label %81

81:                                               ; preds = %75
  %82 = load i32, ptr %12, align 4
  %83 = add i32 %82, 1
  store i32 %83, ptr %12, align 4
  br label %60, !llvm.loop !22

84:                                               ; preds = %60
  br label %85

85:                                               ; preds = %84
  br label %86

86:                                               ; preds = %85
  %87 = load ptr, ptr %7, align 8
  %88 = call i32 @fputs(ptr noundef @.str.33, ptr noundef %87)
  br label %89

89:                                               ; preds = %86, %34
  %90 = load ptr, ptr %7, align 8
  %91 = call i32 @fputs(ptr noundef @.str.34, ptr noundef %90)
  ret void
}