; Function Attrs: nounwind uwtable
define internal fastcc void @emit_type_data(ptr nocapture noundef %0, ptr %.0.val.8.val, ptr nocapture noundef readonly %1) unnamed_addr #0 {
  %3 = load ptr, ptr %1, align 8
  %4 = tail call i32 (ptr, ptr, ...) @fprintf(ptr noundef %0, ptr noundef nonnull @.str.29, ptr noundef %.0.val.8.val, ptr noundef %3) #6
  %5 = getelementptr i8, ptr %1, i64 24
  %.val = load i64, ptr %5, align 8
  %6 = trunc i64 %.val to i32
  %7 = and i32 %6, 127
  switch i32 %7, label %29 [
    i32 1, label %decl_type_to_string.exit
    i32 2, label %8
    i32 4, label %9
    i32 5, label %10
    i32 6, label %11
    i32 7, label %12
    i32 9, label %13
    i32 10, label %14
    i32 11, label %15
    i32 12, label %16
    i32 14, label %17
    i32 15, label %18
    i32 16, label %19
    i32 17, label %20
    i32 18, label %21
    i32 19, label %22
    i32 21, label %23
    i32 22, label %24
    i32 23, label %25
    i32 25, label %26
    i32 24, label %27
    i32 3, label %28
    i32 8, label %28
    i32 13, label %28
    i32 20, label %28
    i32 0, label %28
    i32 26, label %28
  ]

8:                                                ; preds = %2
  br label %decl_type_to_string.exit

9:                                                ; preds = %2
  br label %decl_type_to_string.exit

10:                                               ; preds = %2
  br label %decl_type_to_string.exit

11:                                               ; preds = %2
  br label %decl_type_to_string.exit

12:                                               ; preds = %2
  br label %decl_type_to_string.exit

13:                                               ; preds = %2
  br label %decl_type_to_string.exit

14:                                               ; preds = %2
  br label %decl_type_to_string.exit

15:                                               ; preds = %2
  br label %decl_type_to_string.exit

16:                                               ; preds = %2
  br label %decl_type_to_string.exit

17:                                               ; preds = %2
  br label %decl_type_to_string.exit

18:                                               ; preds = %2
  br label %decl_type_to_string.exit

19:                                               ; preds = %2
  br label %decl_type_to_string.exit

20:                                               ; preds = %2
  br label %decl_type_to_string.exit

21:                                               ; preds = %2
  br label %decl_type_to_string.exit

22:                                               ; preds = %2
  br label %decl_type_to_string.exit

23:                                               ; preds = %2
  br label %decl_type_to_string.exit

24:                                               ; preds = %2
  br label %decl_type_to_string.exit

25:                                               ; preds = %2
  br label %decl_type_to_string.exit

26:                                               ; preds = %2
  br label %decl_type_to_string.exit

27:                                               ; preds = %2
  br label %decl_type_to_string.exit

28:                                               ; preds = %2, %2, %2, %2, %2, %2
  tail call void (ptr, ...) @error_exit(ptr noundef nonnull @.str, ptr noundef nonnull @.str.1, ptr noundef nonnull @__func__.decl_type_to_string, ptr noundef nonnull @.str.2, i32 noundef 65) #5
  unreachable

29:                                               ; preds = %2
  tail call void (ptr, ...) @error_exit(ptr noundef nonnull @.str, ptr noundef nonnull @.str.1, ptr noundef nonnull @__func__.decl_type_to_string, ptr noundef nonnull @.str.2, i32 noundef 67) #5
  unreachable

decl_type_to_string.exit:                         ; preds = %2, %8, %9, %10, %11, %12, %13, %14, %15, %16, %17, %18, %19, %20, %21, %22, %23, %24, %25, %26, %27
  %.0.i = phi ptr [ @.str.55, %27 ], [ @.str.54, %26 ], [ @.str.53, %25 ], [ @.str.52, %24 ], [ @.str.51, %23 ], [ @.str.50, %22 ], [ @.str.49, %21 ], [ @.str.48, %20 ], [ @.str.47, %19 ], [ @.str.46, %18 ], [ @.str.45, %17 ], [ @.str.44, %16 ], [ @.str.43, %15 ], [ @.str.42, %14 ], [ @.str.41, %13 ], [ @.str.40, %12 ], [ @.str.39, %11 ], [ @.str.38, %10 ], [ @.str.37, %9 ], [ @.str.36, %8 ], [ @.str.35, %2 ]
  %30 = tail call i32 (ptr, ptr, ...) @fprintf(ptr noundef %0, ptr noundef nonnull @.str.30, ptr noundef nonnull %.0.i) #6
  %31 = load i64, ptr %5, align 8
  %32 = trunc i64 %31 to i32
  %33 = and i32 %32, 127
  switch i32 %33, label %49 [
    i32 23, label %34
    i32 25, label %34
  ]

34:                                               ; preds = %decl_type_to_string.exit, %decl_type_to_string.exit
  %35 = tail call i64 @fwrite(ptr nonnull @.str.31, i64 18, i64 1, ptr %0)
  %36 = getelementptr inbounds i8, ptr %1, i64 104
  %37 = load ptr, ptr %36, align 8
  %.not = icmp eq ptr %37, null
  br i1 %.not, label %._crit_edge, label %38

38:                                               ; preds = %34
  %39 = getelementptr inbounds i8, ptr %37, i64 -8
  %40 = load i32, ptr %39, align 4
  %.not2 = icmp eq i32 %40, 0
  br i1 %.not2, label %._crit_edge, label %.lr.ph.preheader

.lr.ph.preheader:                                 ; preds = %38
  %wide.trip.count = zext i32 %40 to i64
  br label %.lr.ph

.lr.ph:                                           ; preds = %.lr.ph.preheader, %45
  %indvars.iv = phi i64 [ 0, %.lr.ph.preheader ], [ %indvars.iv.next, %45 ]
  %41 = getelementptr inbounds ptr, ptr %37, i64 %indvars.iv
  %42 = load ptr, ptr %41, align 8
  %.not27 = icmp eq i64 %indvars.iv, 0
  br i1 %.not27, label %45, label %43

43:                                               ; preds = %.lr.ph
  %44 = tail call i64 @fwrite(ptr nonnull @.str.22, i64 2, i64 1, ptr %0)
  br label %45

45:                                               ; preds = %43, %.lr.ph
  %46 = load ptr, ptr %42, align 8
  %47 = tail call i32 (ptr, ptr, ...) @fprintf(ptr noundef %0, ptr noundef nonnull @.str.32, ptr noundef %46) #6
  %indvars.iv.next = add nuw nsw i64 %indvars.iv, 1
  %exitcond.not = icmp eq i64 %indvars.iv.next, %wide.trip.count
  br i1 %exitcond.not, label %._crit_edge, label %.lr.ph, !llvm.loop !22

._crit_edge:                                      ; preds = %45, %34, %38
  %48 = tail call i64 @fwrite(ptr nonnull @.str.33, i64 5, i64 1, ptr %0)
  br label %49

49:                                               ; preds = %decl_type_to_string.exit, %._crit_edge
  %50 = tail call i64 @fwrite(ptr nonnull @.str.34, i64 4, i64 1, ptr %0)
  ret void
}